target datalayout = "e-m:e-p270:32:32-p271:32:32-p272:64:64-i64:64-i128:128-f80:128-n8:16:32:64-S128"
target triple = "x86_64-pc-linux-gnu"

%"class.llvm::SmallVectorBase" = type { ptr, i32, i32 }
%"class.clang::SourceLocation" = type { i32 }
%"class.llvm::BumpPtrAllocatorImpl" = type { ptr, ptr, %"class.llvm::SmallVector.11", %"class.llvm::SmallVector.16", i64, i64 }
%"class.llvm::SmallVector.11" = type { %"class.llvm::SmallVectorImpl.12", %"struct.llvm::SmallVectorStorage.15" }
%"class.llvm::SmallVectorImpl.12" = type { %"class.llvm::SmallVectorTemplateBase.13" }
%"class.llvm::SmallVectorTemplateBase.13" = type { %"class.llvm::SmallVectorTemplateCommon.14" }
%"class.llvm::SmallVectorTemplateCommon.14" = type { %"class.llvm::SmallVectorBase" }
%"struct.llvm::SmallVectorStorage.15" = type { [32 x i8] }
%"class.llvm::SmallVector.16" = type { %"class.llvm::SmallVectorImpl.17" }
%"class.llvm::SmallVectorImpl.17" = type { %"class.llvm::SmallVectorTemplateBase.18" }
%"class.llvm::SmallVectorTemplateBase.18" = type { %"class.llvm::SmallVectorTemplateCommon.19" }
%"class.llvm::SmallVectorTemplateCommon.19" = type { %"class.llvm::SmallVectorBase" }
%"class.llvm::StringRef" = type { ptr, i64 }
%"class.std::__cxx11::basic_string" = type { %"struct.std::__cxx11::basic_string<char>::_Alloc_hider", i64, %union.anon }
%"struct.std::__cxx11::basic_string<char>::_Alloc_hider" = type { ptr }
%union.anon = type { i64, [8 x i8] }
%"class.clang::FileID" = type { i32 }
%"struct.clang::DiagnosticStorage" = type { i8, [10 x i8], [10 x i64], [10 x %"class.std::__cxx11::basic_string"], %"class.llvm::SmallVector.1025", %"class.llvm::SmallVector.1030" }
%"class.llvm::SmallVector.1025" = type { %"class.llvm::SmallVectorImpl.1026", %"struct.llvm::SmallVectorStorage.1029" }
%"class.llvm::SmallVectorImpl.1026" = type { %"class.llvm::SmallVectorTemplateBase.1027" }
%"class.llvm::SmallVectorTemplateBase.1027" = type { %"class.llvm::SmallVectorTemplateCommon.1028" }
%"class.llvm::SmallVectorTemplateCommon.1028" = type { %"class.llvm::SmallVectorBase" }
%"struct.llvm::SmallVectorStorage.1029" = type { [96 x i8] }
%"class.llvm::SmallVector.1030" = type { %"class.llvm::SmallVectorImpl.1031", %"struct.llvm::SmallVectorStorage.1034" }
%"class.llvm::SmallVectorImpl.1031" = type { %"class.llvm::SmallVectorTemplateBase.1032" }
%"class.llvm::SmallVectorTemplateBase.1032" = type { %"class.llvm::SmallVectorTemplateCommon.1033" }
%"class.llvm::SmallVectorTemplateCommon.1033" = type { %"class.llvm::SmallVectorBase" }
%"struct.llvm::SmallVectorStorage.1034" = type { [384 x i8] }
%"struct.std::_Rb_tree_header" = type { %"struct.std::_Rb_tree_node_base", i64 }
%"struct.std::_Rb_tree_node_base" = type { i32, ptr, ptr, ptr }
%"class.clang::DiagnosticsEngine" = type { %"class.llvm::RefCountedBase.1000", i8, i8, i8, i8, i8, i8, i32, i32, i32, i32, i32, %"class.llvm::IntrusiveRefCntPtr.1001", %"class.llvm::IntrusiveRefCntPtr.1002", ptr, %"class.std::unique_ptr.1003", ptr, %"class.std::__cxx11::list", %"class.clang::DiagnosticsEngine::DiagStateMap", %"class.std::vector.1020", i8, i8, i8, i8, i32, i32, i32, i32, i32, ptr, ptr, i32, %"class.std::__cxx11::basic_string", %"class.std::__cxx11::basic_string", %"class.std::__cxx11::basic_string", %"class.std::__cxx11::basic_string", %"class.clang::SourceLocation", i32, %"struct.clang::DiagnosticStorage" }
%"class.llvm::RefCountedBase.1000" = type { i32 }
%"class.llvm::IntrusiveRefCntPtr.1001" = type { ptr }
%"class.llvm::IntrusiveRefCntPtr.1002" = type { ptr }
%"class.std::unique_ptr.1003" = type { %"struct.std::__uniq_ptr_data.1004" }
%"struct.std::__uniq_ptr_data.1004" = type { %"class.std::__uniq_ptr_impl.1005" }
%"class.std::__uniq_ptr_impl.1005" = type { %"class.std::tuple.1006" }
%"class.std::tuple.1006" = type { %"struct.std::_Tuple_impl.1007" }
%"struct.std::_Tuple_impl.1007" = type { %"struct.std::_Head_base.1010" }
%"struct.std::_Head_base.1010" = type { ptr }
%"class.std::__cxx11::list" = type { %"class.std::__cxx11::_List_base" }
%"class.std::__cxx11::_List_base" = type { %"struct.std::__cxx11::_List_base<clang::DiagnosticsEngine::DiagState, std::allocator<clang::DiagnosticsEngine::DiagState>>::_List_impl" }
%"struct.std::__cxx11::_List_base<clang::DiagnosticsEngine::DiagState, std::allocator<clang::DiagnosticsEngine::DiagState>>::_List_impl" = type { %"struct.std::__detail::_List_node_header" }
%"struct.std::__detail::_List_node_header" = type { %"struct.std::__detail::_List_node_base", i64 }
%"struct.std::__detail::_List_node_base" = type { ptr, ptr }
%"class.clang::DiagnosticsEngine::DiagStateMap" = type <{ %"class.std::map.1014", ptr, ptr, %"class.clang::SourceLocation", [4 x i8] }>
%"class.std::map.1014" = type { %"class.std::_Rb_tree.1015" }
%"class.std::_Rb_tree.1015" = type { %"struct.std::_Rb_tree<clang::FileID, std::pair<const clang::FileID, clang::DiagnosticsEngine::DiagStateMap::File>, std::_Select1st<std::pair<const clang::FileID, clang::DiagnosticsEngine::DiagStateMap::File>>, std::less<clang::FileID>>::_Rb_tree_impl" }
%"struct.std::_Rb_tree<clang::FileID, std::pair<const clang::FileID, clang::DiagnosticsEngine::DiagStateMap::File>, std::_Select1st<std::pair<const clang::FileID, clang::DiagnosticsEngine::DiagStateMap::File>>, std::less<clang::FileID>>::_Rb_tree_impl" = type { [8 x i8], %"struct.std::_Rb_tree_header" }
%"class.std::vector.1020" = type { %"struct.std::_Vector_base.1021" }
%"struct.std::_Vector_base.1021" = type { %"struct.std::_Vector_base<clang::DiagnosticsEngine::DiagState *, std::allocator<clang::DiagnosticsEngine::DiagState *>>::_Vector_impl" }
%"struct.std::_Vector_base<clang::DiagnosticsEngine::DiagState *, std::allocator<clang::DiagnosticsEngine::DiagState *>>::_Vector_impl" = type { %"struct.std::_Vector_base<clang::DiagnosticsEngine::DiagState *, std::allocator<clang::DiagnosticsEngine::DiagState *>>::_Vector_impl_data" }
%"struct.std::_Vector_base<clang::DiagnosticsEngine::DiagState *, std::allocator<clang::DiagnosticsEngine::DiagState *>>::_Vector_impl_data" = type { ptr, ptr, ptr }
%"struct.std::pair.1547" = type { %"class.clang::FileID", i32 }
%"class.clang::DiagnosticOptions" = type <{ %"class.llvm::RefCountedBase.1546", i64, i64, i64, i64, i64, i8, [3 x i8], %"class.std::__cxx11::basic_string", %"class.std::__cxx11::basic_string", %"class.std::vector", %"class.std::vector", %"class.std::vector", %"class.std::vector", %"class.std::vector" }>
%"class.llvm::RefCountedBase.1546" = type { i32 }
%"class.std::vector" = type { %"struct.std::_Vector_base" }
%"struct.std::_Vector_base" = type { %"struct.std::_Vector_base<std::__cxx11::basic_string<char>, std::allocator<std::__cxx11::basic_string<char>>>::_Vector_impl" }
%"struct.std::_Vector_base<std::__cxx11::basic_string<char>, std::allocator<std::__cxx11::basic_string<char>>>::_Vector_impl" = type { %"struct.std::_Vector_base<std::__cxx11::basic_string<char>, std::allocator<std::__cxx11::basic_string<char>>>::_Vector_impl_data" }
%"struct.std::_Vector_base<std::__cxx11::basic_string<char>, std::allocator<std::__cxx11::basic_string<char>>>::_Vector_impl_data" = type { ptr, ptr, ptr }
%"class.clang::SourceManager" = type { %"class.llvm::RefCountedBase", ptr, ptr, %"class.llvm::BumpPtrAllocatorImpl", %"class.llvm::DenseMap.910", i8, i8, i8, %"class.std::unique_ptr.913", %"class.std::vector.921", %"class.llvm::SmallVector.926", %"class.llvm::PagedVector", %"class.llvm::SmallVector.938", i32, i32, %"class.llvm::BitVector", %"class.llvm::BitVector", ptr, %"class.clang::FileID", %"class.std::unique_ptr.948", %"class.clang::FileID", ptr, i32, i32, %"class.clang::FileID", %"class.clang::FileID", i32, i32, %"class.llvm::DenseMap.956", %"class.llvm::DenseMap.959", %"class.clang::InBeforeInTUCacheEntry", %"class.std::unique_ptr.962", %"class.std::unique_ptr.970", %"class.std::unique_ptr.978", %"class.llvm::DenseMap.986", %"class.llvm::SmallVector.989" }
%"class.llvm::RefCountedBase" = type { i32 }
%"class.llvm::DenseMap.910" = type <{ ptr, i32, i32, i32, [4 x i8] }>
%"class.std::unique_ptr.913" = type { %"struct.std::__uniq_ptr_data.914" }
%"struct.std::__uniq_ptr_data.914" = type { %"class.std::__uniq_ptr_impl.915" }
%"class.std::__uniq_ptr_impl.915" = type { %"class.std::tuple.916" }
%"class.std::tuple.916" = type { %"struct.std::_Tuple_impl.917" }
%"struct.std::_Tuple_impl.917" = type { %"struct.std::_Head_base.920" }
%"struct.std::_Head_base.920" = type { ptr }
%"class.std::vector.921" = type { %"struct.std::_Vector_base.922" }
%"struct.std::_Vector_base.922" = type { %"struct.std::_Vector_base<clang::SrcMgr::ContentCache *, std::allocator<clang::SrcMgr::ContentCache *>>::_Vector_impl" }
%"struct.std::_Vector_base<clang::SrcMgr::ContentCache *, std::allocator<clang::SrcMgr::ContentCache *>>::_Vector_impl" = type { %"struct.std::_Vector_base<clang::SrcMgr::ContentCache *, std::allocator<clang::SrcMgr::ContentCache *>>::_Vector_impl_data" }
%"struct.std::_Vector_base<clang::SrcMgr::ContentCache *, std::allocator<clang::SrcMgr::ContentCache *>>::_Vector_impl_data" = type { ptr, ptr, ptr }
%"class.llvm::SmallVector.926" = type { %"class.llvm::SmallVectorImpl.927" }
%"class.llvm::SmallVectorImpl.927" = type { %"class.llvm::SmallVectorTemplateBase.928" }
%"class.llvm::SmallVectorTemplateBase.928" = type { %"class.llvm::SmallVectorTemplateCommon.929" }
%"class.llvm::SmallVectorTemplateCommon.929" = type { %"class.llvm::SmallVectorBase" }
%"class.llvm::PagedVector" = type { i64, %"class.llvm::SmallVector.931", %"class.llvm::PointerIntPair.936" }
%"class.llvm::SmallVector.931" = type { %"class.llvm::SmallVectorImpl.932" }
%"class.llvm::SmallVectorImpl.932" = type { %"class.llvm::SmallVectorTemplateBase.933" }
%"class.llvm::SmallVectorTemplateBase.933" = type { %"class.llvm::SmallVectorTemplateCommon.934" }
%"class.llvm::SmallVectorTemplateCommon.934" = type { %"class.llvm::SmallVectorBase" }
%"class.llvm::PointerIntPair.936" = type { %"struct.llvm::detail::PunnedPointer.937" }
%"struct.llvm::detail::PunnedPointer.937" = type { [8 x i8] }
%"class.llvm::SmallVector.938" = type { %"class.llvm::SmallVectorImpl.939" }
%"class.llvm::SmallVectorImpl.939" = type { %"class.llvm::SmallVectorTemplateBase.940" }
%"class.llvm::SmallVectorTemplateBase.940" = type { %"class.llvm::SmallVectorTemplateCommon.941" }
%"class.llvm::SmallVectorTemplateCommon.941" = type { %"class.llvm::SmallVectorBase" }
%"class.llvm::BitVector" = type <{ %"class.llvm::SmallVector.943", i32, [4 x i8] }>
%"class.llvm::SmallVector.943" = type { %"class.llvm::SmallVectorImpl.944", %"struct.llvm::SmallVectorStorage.947" }
%"class.llvm::SmallVectorImpl.944" = type { %"class.llvm::SmallVectorTemplateBase.945" }
%"class.llvm::SmallVectorTemplateBase.945" = type { %"class.llvm::SmallVectorTemplateCommon.946" }
%"class.llvm::SmallVectorTemplateCommon.946" = type { %"class.llvm::SmallVectorBase" }
%"struct.llvm::SmallVectorStorage.947" = type { [48 x i8] }
%"class.std::unique_ptr.948" = type { %"struct.std::__uniq_ptr_data.949" }
%"struct.std::__uniq_ptr_data.949" = type { %"class.std::__uniq_ptr_impl.950" }
%"class.std::__uniq_ptr_impl.950" = type { %"class.std::tuple.951" }
%"class.std::tuple.951" = type { %"struct.std::_Tuple_impl.952" }
%"struct.std::_Tuple_impl.952" = type { %"struct.std::_Head_base.955" }
%"struct.std::_Head_base.955" = type { ptr }
%"class.llvm::DenseMap.956" = type <{ ptr, i32, i32, i32, [4 x i8] }>
%"class.llvm::DenseMap.959" = type <{ ptr, i32, i32, i32, [4 x i8] }>
%"class.clang::InBeforeInTUCacheEntry" = type { %"class.clang::FileID", %"class.clang::FileID", i8, %"class.clang::FileID", i32, i32 }
%"class.std::unique_ptr.962" = type { %"struct.std::__uniq_ptr_data.963" }
%"struct.std::__uniq_ptr_data.963" = type { %"class.std::__uniq_ptr_impl.964" }
%"class.std::__uniq_ptr_impl.964" = type { %"class.std::tuple.965" }
%"class.std::tuple.965" = type { %"struct.std::_Tuple_impl.966" }
%"struct.std::_Tuple_impl.966" = type { %"struct.std::_Head_base.969" }
%"struct.std::_Head_base.969" = type { ptr }
%"class.std::unique_ptr.970" = type { %"struct.std::__uniq_ptr_data.971" }
%"struct.std::__uniq_ptr_data.971" = type { %"class.std::__uniq_ptr_impl.972" }
%"class.std::__uniq_ptr_impl.972" = type { %"class.std::tuple.973" }
%"class.std::tuple.973" = type { %"struct.std::_Tuple_impl.974" }
%"struct.std::_Tuple_impl.974" = type { %"struct.std::_Head_base.977" }
%"struct.std::_Head_base.977" = type { ptr }
%"class.std::unique_ptr.978" = type { %"struct.std::__uniq_ptr_data.979" }
%"struct.std::__uniq_ptr_data.979" = type { %"class.std::__uniq_ptr_impl.980" }
%"class.std::__uniq_ptr_impl.980" = type { %"class.std::tuple.981" }
%"class.std::tuple.981" = type { %"struct.std::_Tuple_impl.982" }
%"struct.std::_Tuple_impl.982" = type { %"struct.std::_Head_base.985" }
%"struct.std::_Head_base.985" = type { ptr }
%"class.llvm::DenseMap.986" = type <{ ptr, i32, i32, i32, [4 x i8] }>
%"class.llvm::SmallVector.989" = type { %"class.llvm::SmallVectorImpl.990", %"struct.llvm::SmallVectorStorage.993" }
%"class.llvm::SmallVectorImpl.990" = type { %"class.llvm::SmallVectorTemplateBase.991" }
%"class.llvm::SmallVectorTemplateBase.991" = type { %"class.llvm::SmallVectorTemplateCommon.992" }
%"class.llvm::SmallVectorTemplateCommon.992" = type { %"class.llvm::SmallVectorBase" }
%"struct.llvm::SmallVectorStorage.993" = type { [96 x i8] }

; Function Attrs: mustprogress nounwind uwtable
define linkonce_odr hidden noundef nonnull align 8 dereferenceable(232) ptr @_ZNK4llvm18IntrusiveRefCntPtrIN5clang17DiagnosticOptionsEEdeEv(ptr noundef nonnull align 8 dereferenceable(8) %0) #0 comdat align 2 {
  %2 = alloca ptr, align 8
  store ptr %0, ptr %2, align 8
  %3 = load ptr, ptr %2, align 8
  %4 = getelementptr inbounds nuw %"class.llvm::IntrusiveRefCntPtr.1002", ptr %3, i32 0, i32 0
  %5 = load ptr, ptr %4, align 8
  ret ptr %5
}

; Function Attrs: mustprogress nounwind uwtable
define linkonce_odr hidden noundef ptr @_ZNK4llvm9StringRef4dataEv(ptr noundef nonnull align 8 dereferenceable(16) %0) #0 comdat align 2 {
  %2 = alloca ptr, align 8
  store ptr %0, ptr %2, align 8
  %3 = load ptr, ptr %2, align 8
  %4 = getelementptr inbounds nuw %"class.llvm::StringRef", ptr %3, i32 0, i32 0
  %5 = load ptr, ptr %4, align 8
  ret ptr %5
}

; Function Attrs: mustprogress nounwind uwtable
define linkonce_odr hidden noundef nonnull align 8 dereferenceable(232) ptr @_ZNK5clang17DiagnosticsEngine20getDiagnosticOptionsEv(ptr noundef nonnull align 8 dereferenceable(1304) %0) #0 comdat align 2 {
  %2 = alloca ptr, align 8
  store ptr %0, ptr %2, align 8
  %3 = load ptr, ptr %2, align 8
  %4 = getelementptr inbounds nuw %"class.clang::DiagnosticsEngine", ptr %3, i32 0, i32 13
  %5 = call noundef nonnull align 8 dereferenceable(232) ptr @_ZNK4llvm18IntrusiveRefCntPtrIN5clang17DiagnosticOptionsEEdeEv(ptr noundef nonnull align 8 dereferenceable(8) %4)
  ret ptr %5
}

; Function Attrs: mustprogress nounwind uwtable
define linkonce_odr hidden noundef nonnull align 8 dereferenceable(1304) ptr @_ZNK5clang13SourceManager14getDiagnosticsEv(ptr noundef nonnull align 8 dereferenceable(696) %0) #0 comdat align 2 {
  %2 = alloca ptr, align 8
  store ptr %0, ptr %2, align 8
  %3 = load ptr, ptr %2, align 8
  %4 = getelementptr inbounds nuw %"class.clang::SourceManager", ptr %3, i32 0, i32 1
  %5 = load ptr, ptr %4, align 8
  ret ptr %5
}

; Function Attrs: mustprogress nounwind uwtable
define internal noundef i32 @_ZN12_GLOBAL__N_128MisleadingIndentationChecker20getVisualIndentationERN5clang13SourceManagerENS1_14SourceLocationE(ptr noundef nonnull align 8 dereferenceable(696) %0, i32 %1) #0 align 2 {
  %3 = alloca i32, align 4
  %4 = alloca %"class.clang::SourceLocation", align 4
  %5 = alloca ptr, align 8
  %6 = alloca i32, align 4
  %7 = alloca i32, align 4
  %8 = alloca %"class.clang::SourceLocation", align 4
  %9 = alloca %"struct.std::pair.1547", align 4
  %10 = alloca %"class.clang::SourceLocation", align 4
  %11 = alloca i8, align 1
  %12 = alloca %"class.llvm::StringRef", align 8
  %13 = alloca %"class.clang::FileID", align 4
  %14 = alloca ptr, align 8
  %15 = alloca i32, align 4
  %16 = alloca ptr, align 8
  %17 = getelementptr inbounds nuw %"class.clang::SourceLocation", ptr %4, i32 0, i32 0
  store i32 %1, ptr %17, align 4
  store ptr %0, ptr %5, align 8
  %18 = load ptr, ptr %5, align 8
  %19 = call noundef nonnull align 8 dereferenceable(1304) ptr @_ZNK5clang13SourceManager14getDiagnosticsEv(ptr noundef nonnull align 8 dereferenceable(696) %18)
  %20 = call noundef nonnull align 8 dereferenceable(232) ptr @_ZNK5clang17DiagnosticsEngine20getDiagnosticOptionsEv(ptr noundef nonnull align 8 dereferenceable(1304) %19)
  %21 = getelementptr inbounds nuw %"class.clang::DiagnosticOptions", ptr %20, i32 0, i32 5
  %22 = load i64, ptr %21, align 4
  %23 = and i64 %22, 4294967295
  %24 = trunc i64 %23 to i32
  store i32 %24, ptr %6, align 4
  %25 = load ptr, ptr %5, align 8
  call void @llvm.memcpy.p0.p0.i64(ptr align 4 %8, ptr align 4 %4, i64 4, i1 false)
  %26 = getelementptr inbounds nuw %"class.clang::SourceLocation", ptr %8, i32 0, i32 0
  %27 = load i32, ptr %26, align 4
  %28 = call noundef i32 @_ZNK5clang13SourceManager23getSpellingColumnNumberENS_14SourceLocationEPb(ptr noundef nonnull align 8 dereferenceable(696) %25, i32 %27, ptr noundef null)
  store i32 %28, ptr %7, align 4
  %29 = load i32, ptr %7, align 4
  %30 = icmp eq i32 %29, 0
  br i1 %30, label %34, label %31

31:                                               ; preds = %2
  %32 = load i32, ptr %6, align 4
  %33 = icmp eq i32 %32, 1
  br i1 %33, label %34, label %36

34:                                               ; preds = %31, %2
  %35 = load i32, ptr %7, align 4
  store i32 %35, ptr %3, align 4
  br label %92

36:                                               ; preds = %31
  %37 = load ptr, ptr %5, align 8
  call void @llvm.memcpy.p0.p0.i64(ptr align 4 %10, ptr align 4 %4, i64 4, i1 false)
  %38 = getelementptr inbounds nuw %"class.clang::SourceLocation", ptr %10, i32 0, i32 0
  %39 = load i32, ptr %38, align 4
  %40 = call i64 @_ZNK5clang13SourceManager16getDecomposedLocENS_14SourceLocationE(ptr noundef nonnull align 8 dereferenceable(696) %37, i32 %39)
  store i64 %40, ptr %9, align 4
  %41 = load ptr, ptr %5, align 8
  %42 = getelementptr inbounds nuw %"struct.std::pair.1547", ptr %9, i32 0, i32 0
  call void @llvm.memcpy.p0.p0.i64(ptr align 4 %13, ptr align 4 %42, i64 4, i1 false)
  %43 = getelementptr inbounds nuw %"class.clang::FileID", ptr %13, i32 0, i32 0
  %44 = load i32, ptr %43, align 4
  %45 = call { ptr, i64 } @_ZNK5clang13SourceManager13getBufferDataENS_6FileIDEPb(ptr noundef nonnull align 8 dereferenceable(696) %41, i32 %44, ptr noundef %11)
  %46 = getelementptr inbounds nuw { ptr, i64 }, ptr %12, i32 0, i32 0
  %47 = extractvalue { ptr, i64 } %45, 0
  store ptr %47, ptr %46, align 8
  %48 = getelementptr inbounds nuw { ptr, i64 }, ptr %12, i32 0, i32 1
  %49 = extractvalue { ptr, i64 } %45, 1
  store i64 %49, ptr %48, align 8
  %50 = load i8, ptr %11, align 1
  %51 = trunc i8 %50 to i1
  br i1 %51, label %52, label %53

52:                                               ; preds = %36
  store i32 0, ptr %3, align 4
  br label %92

53:                                               ; preds = %36
  %54 = call noundef ptr @_ZNK4llvm9StringRef4dataEv(ptr noundef nonnull align 8 dereferenceable(16) %12)
  %55 = getelementptr inbounds nuw %"struct.std::pair.1547", ptr %9, i32 0, i32 1
  %56 = load i32, ptr %55, align 4
  %57 = zext i32 %56 to i64
  %58 = getelementptr inbounds i8, ptr %54, i64 %57
  store ptr %58, ptr %14, align 8
  store i32 0, ptr %15, align 4
  %59 = load ptr, ptr %14, align 8
  %60 = load i32, ptr %7, align 4
  %61 = sub i32 %60, 1
  %62 = zext i32 %61 to i64
  %63 = sub i64 0, %62
  %64 = getelementptr inbounds i8, ptr %59, i64 %63
  store ptr %64, ptr %16, align 8
  br label %65

65:                                               ; preds = %86, %53
  %66 = load ptr, ptr %16, align 8
  %67 = load ptr, ptr %14, align 8
  %68 = icmp ne ptr %66, %67
  br i1 %68, label %69, label %89

69:                                               ; preds = %65
  %70 = load ptr, ptr %16, align 8
  %71 = load i8, ptr %70, align 1
  %72 = sext i8 %71 to i32
  %73 = icmp eq i32 %72, 9
  br i1 %73, label %74, label %82

74:                                               ; preds = %69
  %75 = load i32, ptr %6, align 4
  %76 = load i32, ptr %15, align 4
  %77 = load i32, ptr %6, align 4
  %78 = urem i32 %76, %77
  %79 = sub i32 %75, %78
  %80 = load i32, ptr %15, align 4
  %81 = add i32 %80, %79
  store i32 %81, ptr %15, align 4
  br label %85

82:                                               ; preds = %69
  %83 = load i32, ptr %15, align 4
  %84 = add i32 %83, 1
  store i32 %84, ptr %15, align 4
  br label %85

85:                                               ; preds = %82, %74
  br label %86

86:                                               ; preds = %85
  %87 = load ptr, ptr %16, align 8
  %88 = getelementptr inbounds i8, ptr %87, i32 1
  store ptr %88, ptr %16, align 8
  br label %65, !llvm.loop !24

89:                                               ; preds = %65
  %90 = load i32, ptr %15, align 4
  %91 = add i32 %90, 1
  store i32 %91, ptr %3, align 4
  br label %92

92:                                               ; preds = %89, %52, %34
  %93 = load i32, ptr %3, align 4
  ret i32 %93
}