; Function Attrs: mustprogress nounwind uwtable
define internal fastcc noundef i32 @_ZN12_GLOBAL__N_128MisleadingIndentationChecker20getVisualIndentationERN5clang13SourceManagerENS1_14SourceLocationE(ptr noundef nonnull align 8 dereferenceable(696) %0, i32 %1) unnamed_addr #0 align 2 {
  %3 = alloca i8, align 1
  %4 = getelementptr inbounds nuw i8, ptr %0, i64 8
  %5 = load ptr, ptr %4, align 8
  %6 = getelementptr inbounds nuw i8, ptr %5, i64 40
  %7 = load ptr, ptr %6, align 8
  %8 = getelementptr inbounds nuw i8, ptr %7, i64 36
  %9 = load i64, ptr %8, align 4
  %10 = trunc i64 %9 to i32
  %11 = tail call noundef i32 @_ZNK5clang13SourceManager23getSpellingColumnNumberENS_14SourceLocationEPb(ptr noundef nonnull align 8 dereferenceable(696) %0, i32 %1, ptr noundef null) #14
  %12 = icmp eq i32 %11, 0
  %13 = icmp eq i32 %10, 1
  %or.cond = select i1 %12, i1 true, i1 %13
  br i1 %or.cond, label %._crit_edge, label %14

14:                                               ; preds = %2
  %15 = tail call i64 @_ZNK5clang13SourceManager16getDecomposedLocENS_14SourceLocationE(ptr noundef nonnull align 8 dereferenceable(696) %0, i32 %1)
  %.sroa.010.0.extract.trunc = trunc i64 %15 to i32
  %16 = call { ptr, i64 } @_ZNK5clang13SourceManager13getBufferDataENS_6FileIDEPb(ptr noundef nonnull align 8 dereferenceable(696) %0, i32 %.sroa.010.0.extract.trunc, ptr noundef nonnull %3) #14
  %17 = load i8, ptr %3, align 1
  %18 = trunc i8 %17 to i1
  br i1 %18, label %._crit_edge, label %19

19:                                               ; preds = %14
  %20 = extractvalue { ptr, i64 } %16, 0
  %.sroa.2.0.extract.shift = lshr i64 %15, 32
  %21 = getelementptr inbounds i8, ptr %20, i64 %.sroa.2.0.extract.shift
  %22 = add i32 %11, -1
  %.not29 = icmp eq i32 %22, 0
  br i1 %.not29, label %._crit_edge, label %.lr.ph.preheader

.lr.ph.preheader:                                 ; preds = %19
  %23 = zext i32 %22 to i64
  %24 = sub nsw i64 0, %23
  %25 = getelementptr inbounds i8, ptr %21, i64 %24
  br label %.lr.ph

.lr.ph:                                           ; preds = %.lr.ph.preheader, %31
  %.031 = phi ptr [ %32, %31 ], [ %25, %.lr.ph.preheader ]
  %.02530 = phi i32 [ %.1, %31 ], [ 0, %.lr.ph.preheader ]
  %26 = load i8, ptr %.031, align 1
  %27 = icmp eq i8 %26, 9
  br i1 %27, label %28, label %31

28:                                               ; preds = %.lr.ph
  %29 = urem i32 %.02530, %10
  %30 = sub i32 %10, %29
  br label %31

31:                                               ; preds = %.lr.ph, %28
  %.pn = phi i32 [ %30, %28 ], [ 1, %.lr.ph ]
  %.1 = add i32 %.pn, %.02530
  %32 = getelementptr inbounds i8, ptr %.031, i64 1
  %.not = icmp eq ptr %32, %21
  br i1 %.not, label %._crit_edge.loopexit, label %.lr.ph, !llvm.loop !72

._crit_edge.loopexit:                             ; preds = %31
  %33 = add i32 %.1, 1
  br label %._crit_edge

._crit_edge:                                      ; preds = %19, %._crit_edge.loopexit, %14, %2
  %.026 = phi i32 [ %11, %2 ], [ 0, %14 ], [ 1, %19 ], [ %33, %._crit_edge.loopexit ]
  ret i32 %.026
}